; ModuleID = 'bench/linux/original/xattr_user.ll'
source_filename = "bench/linux/original/xattr_user.ll"
target datalayout = "e-m:e-p270:32:32-p271:32:32-p272:64:64-i64:64-i128:128-f80:128-n8:16:32:64-S128"
target triple = "x86_64-unknown-linux-gnu"

%struct.xattr_handler = type { ptr, ptr, i32, ptr, ptr, ptr }

@.str = private unnamed_addr constant [6 x i8] c"user.\00", align 1
@ext4_xattr_user_handler = dso_local local_unnamed_addr constant %struct.xattr_handler { ptr null, ptr @.str, i32 0, ptr @ext4_xattr_user_list, ptr @ext4_xattr_user_get, ptr @ext4_xattr_user_set }, align 8

; Function Attrs: fn_ret_thunk_extern mustprogress nofree norecurse nosync nounwind null_pointer_is_valid willreturn memory(read, inaccessiblemem: none)
define internal zeroext i1 @ext4_xattr_user_list(ptr nocapture noundef readonly %0) #0 align 16 {
  %2 = getelementptr inbounds i8, ptr %0, i64 112
  %3 = load ptr, ptr %2, align 8
  %4 = getelementptr inbounds i8, ptr %3, i64 872
  %5 = load ptr, ptr %4, align 8
  %6 = getelementptr inbounds i8, ptr %5, i64 120
  %7 = load i32, ptr %6, align 8
  %8 = and i32 %7, 16384
  %9 = icmp ne i32 %8, 0
  ret i1 %9
}

; Function Attrs: fn_ret_thunk_extern nounwind null_pointer_is_valid
define internal i32 @ext4_xattr_user_get(ptr nocapture readnone %0, ptr nocapture readnone %1, ptr noundef %2, ptr noundef %3, ptr noundef %4, i64 noundef %5) #1 align 16 {
  %7 = getelementptr inbounds i8, ptr %2, i64 40
  %8 = load ptr, ptr %7, align 8
  %9 = getelementptr inbounds i8, ptr %8, i64 872
  %10 = load ptr, ptr %9, align 8
  %11 = getelementptr inbounds i8, ptr %10, i64 120
  %12 = load i32, ptr %11, align 8
  %13 = and i32 %12, 16384
  %14 = icmp eq i32 %13, 0
  br i1 %14, label %17, label %15

15:                                               ; preds = %6
  %16 = tail call i32 @ext4_xattr_get(ptr noundef %2, i32 noundef 1, ptr noundef %3, ptr noundef %4, i64 noundef %5) #3
  br label %17

17:                                               ; preds = %15, %6
  %18 = phi i32 [ %16, %15 ], [ -95, %6 ]
  ret i32 %18
}

; Function Attrs: fn_ret_thunk_extern nounwind null_pointer_is_valid
define internal i32 @ext4_xattr_user_set(ptr nocapture readnone %0, ptr nocapture readnone %1, ptr nocapture readnone %2, ptr noundef %3, ptr noundef %4, ptr noundef %5, i64 noundef %6, i32 noundef %7) #1 align 16 {
  %9 = getelementptr inbounds i8, ptr %3, i64 40
  %10 = load ptr, ptr %9, align 8
  %11 = getelementptr inbounds i8, ptr %10, i64 872
  %12 = load ptr, ptr %11, align 8
  %13 = getelementptr inbounds i8, ptr %12, i64 120
  %14 = load i32, ptr %13, align 8
  %15 = and i32 %14, 16384
  %16 = icmp eq i32 %15, 0
  br i1 %16, label %19, label %17

17:                                               ; preds = %8
  %18 = tail call i32 @ext4_xattr_set(ptr noundef %3, i32 noundef 1, ptr noundef %4, ptr noundef %5, i64 noundef %6, i32 noundef %7) #3
  br label %19

19:                                               ; preds = %17, %8
  %20 = phi i32 [ %18, %17 ], [ -95, %8 ]
  ret i32 %20
}

; Function Attrs: null_pointer_is_valid
declare dso_local i32 @ext4_xattr_get(ptr noundef, i32 noundef, ptr noundef, ptr noundef, i64 noundef) local_unnamed_addr #2

; Function Attrs: null_pointer_is_valid
declare dso_local i32 @ext4_xattr_set(ptr noundef, i32 noundef, ptr noundef, ptr noundef, i64 noundef, i32 noundef) local_unnamed_addr #2


!llvm.module.flags = !{!0, !1, !2, !3, !4}

!0 = !{i32 1, !"wchar_size", i32 2}
!1 = !{i32 8, !"cf-protection-branch", i32 1}
!2 = !{i32 4, !"function_return_thunk_extern", i32 1}
!3 = !{i32 4, !"indirect_branch_cs_prefix", i32 1}
!4 = !{i32 4, !"SkipRaxSetup", i32 1}
